target datalayout = "e-m:e-p270:32:32-p271:32:32-p272:64:64-i64:64-i128:128-f80:128-n8:16:32:64-S128"
target triple = "x86_64-pc-linux-gnu"

%struct.rsa_st = type { ptr, ptr, ptr, ptr, ptr, ptr, ptr, ptr, ptr, ptr, %struct.crypto_ex_data_st, i32, i32, %union.crypto_mutex_st, ptr, ptr, ptr, i32, ptr, ptr }
%struct.crypto_ex_data_st = type { ptr }
%union.crypto_mutex_st = type { double, [48 x i8] }

; Function Attrs: nounwind uwtable
define internal ptr @rsa_blinding_get(ptr noundef %0, ptr noundef %1, ptr noundef %2) #0 {
  %4 = alloca ptr, align 8
  %5 = alloca ptr, align 8
  %6 = alloca ptr, align 8
  %7 = alloca ptr, align 8
  %8 = alloca ptr, align 8
  %9 = alloca ptr, align 8
  %10 = alloca ptr, align 8
  %11 = alloca i8, align 1
  %12 = alloca i32, align 4
  %13 = alloca i32, align 4
  store ptr %0, ptr %5, align 8, !tbaa !6
  store ptr %1, ptr %6, align 8, !tbaa !42
  store ptr %2, ptr %7, align 8, !tbaa !28
  call void @llvm.lifetime.start.p0(i64 8, ptr %8) #7
  store ptr null, ptr %8, align 8, !tbaa !33
  call void @llvm.lifetime.start.p0(i64 8, ptr %9) #7
  call void @llvm.lifetime.start.p0(i64 8, ptr %10) #7
  call void @llvm.lifetime.start.p0(i64 1, ptr %11) #7
  store i8 0, ptr %11, align 1, !tbaa !44
  %14 = load ptr, ptr %5, align 8, !tbaa !6
  %15 = getelementptr inbounds nuw %struct.rsa_st, ptr %14, i32 0, i32 13
  call void @CRYPTO_MUTEX_lock_write(ptr noundef %15)
  call void @llvm.lifetime.start.p0(i64 4, ptr %12) #7
  store i32 0, ptr %12, align 4, !tbaa !27
  br label %16

16:                                               ; preds = %49, %3
  %17 = load i32, ptr %12, align 4, !tbaa !27
  %18 = load ptr, ptr %5, align 8, !tbaa !6
  %19 = getelementptr inbounds nuw %struct.rsa_st, ptr %18, i32 0, i32 17
  %20 = load i32, ptr %19, align 8, !tbaa !45
  %21 = icmp ult i32 %17, %20
  br i1 %21, label %22, label %52

22:                                               ; preds = %16
  %23 = load ptr, ptr %5, align 8, !tbaa !6
  %24 = getelementptr inbounds nuw %struct.rsa_st, ptr %23, i32 0, i32 19
  %25 = load ptr, ptr %24, align 8, !tbaa !46
  %26 = load i32, ptr %12, align 4, !tbaa !27
  %27 = zext i32 %26 to i64
  %28 = getelementptr inbounds nuw i8, ptr %25, i64 %27
  %29 = load i8, ptr %28, align 1, !tbaa !44
  %30 = zext i8 %29 to i32
  %31 = icmp eq i32 %30, 0
  br i1 %31, label %32, label %48

32:                                               ; preds = %22
  %33 = load ptr, ptr %5, align 8, !tbaa !6
  %34 = getelementptr inbounds nuw %struct.rsa_st, ptr %33, i32 0, i32 19
  %35 = load ptr, ptr %34, align 8, !tbaa !46
  %36 = load i32, ptr %12, align 4, !tbaa !27
  %37 = zext i32 %36 to i64
  %38 = getelementptr inbounds nuw i8, ptr %35, i64 %37
  store i8 1, ptr %38, align 1, !tbaa !44
  %39 = load ptr, ptr %5, align 8, !tbaa !6
  %40 = getelementptr inbounds nuw %struct.rsa_st, ptr %39, i32 0, i32 18
  %41 = load ptr, ptr %40, align 8, !tbaa !47
  %42 = load i32, ptr %12, align 4, !tbaa !27
  %43 = zext i32 %42 to i64
  %44 = getelementptr inbounds nuw ptr, ptr %41, i64 %43
  %45 = load ptr, ptr %44, align 8, !tbaa !33
  store ptr %45, ptr %8, align 8, !tbaa !33
  %46 = load i32, ptr %12, align 4, !tbaa !27
  %47 = load ptr, ptr %6, align 8, !tbaa !42
  store i32 %46, ptr %47, align 4, !tbaa !27
  br label %52

48:                                               ; preds = %22
  br label %49

49:                                               ; preds = %48
  %50 = load i32, ptr %12, align 4, !tbaa !27
  %51 = add i32 %50, 1
  store i32 %51, ptr %12, align 4, !tbaa !27
  br label %16, !llvm.loop !48

52:                                               ; preds = %32, %16
  %53 = load ptr, ptr %8, align 8, !tbaa !33
  %54 = icmp ne ptr %53, null
  br i1 %54, label %55, label %59

55:                                               ; preds = %52
  %56 = load ptr, ptr %5, align 8, !tbaa !6
  %57 = getelementptr inbounds nuw %struct.rsa_st, ptr %56, i32 0, i32 13
  call void @CRYPTO_MUTEX_unlock(ptr noundef %57)
  %58 = load ptr, ptr %8, align 8, !tbaa !33
  store ptr %58, ptr %4, align 8
  store i32 1, ptr %13, align 4
  br label %161

59:                                               ; preds = %52
  %60 = load ptr, ptr %5, align 8, !tbaa !6
  %61 = getelementptr inbounds nuw %struct.rsa_st, ptr %60, i32 0, i32 17
  %62 = load i32, ptr %61, align 8, !tbaa !45
  %63 = icmp uge i32 %62, 1024
  %64 = zext i1 %63 to i32
  %65 = trunc i32 %64 to i8
  store i8 %65, ptr %11, align 1, !tbaa !44
  %66 = load ptr, ptr %5, align 8, !tbaa !6
  %67 = getelementptr inbounds nuw %struct.rsa_st, ptr %66, i32 0, i32 13
  call void @CRYPTO_MUTEX_unlock(ptr noundef %67)
  %68 = call ptr @BN_BLINDING_new()
  store ptr %68, ptr %8, align 8, !tbaa !33
  %69 = load ptr, ptr %8, align 8, !tbaa !33
  %70 = icmp eq ptr %69, null
  br i1 %70, label %71, label %72

71:                                               ; preds = %59
  store ptr null, ptr %4, align 8
  store i32 1, ptr %13, align 4
  br label %161

72:                                               ; preds = %59
  %73 = load i8, ptr %11, align 1, !tbaa !44
  %74 = icmp ne i8 %73, 0
  br i1 %74, label %75, label %78

75:                                               ; preds = %72
  %76 = load ptr, ptr %6, align 8, !tbaa !42
  store i32 1024, ptr %76, align 4, !tbaa !27
  %77 = load ptr, ptr %8, align 8, !tbaa !33
  store ptr %77, ptr %4, align 8
  store i32 1, ptr %13, align 4
  br label %161

78:                                               ; preds = %72
  %79 = load ptr, ptr %5, align 8, !tbaa !6
  %80 = getelementptr inbounds nuw %struct.rsa_st, ptr %79, i32 0, i32 13
  call void @CRYPTO_MUTEX_lock_write(ptr noundef %80)
  %81 = load ptr, ptr %5, align 8, !tbaa !6
  %82 = getelementptr inbounds nuw %struct.rsa_st, ptr %81, i32 0, i32 17
  %83 = load i32, ptr %82, align 8, !tbaa !45
  %84 = add i32 %83, 1
  %85 = zext i32 %84 to i64
  %86 = mul i64 8, %85
  %87 = call noalias ptr @malloc(i64 noundef %86) #8
  store ptr %87, ptr %9, align 8, !tbaa !50
  %88 = load ptr, ptr %9, align 8, !tbaa !50
  %89 = icmp eq ptr %88, null
  br i1 %89, label %90, label %91

90:                                               ; preds = %78
  br label %157

91:                                               ; preds = %78
  %92 = load ptr, ptr %9, align 8, !tbaa !50
  %93 = load ptr, ptr %5, align 8, !tbaa !6
  %94 = getelementptr inbounds nuw %struct.rsa_st, ptr %93, i32 0, i32 18
  %95 = load ptr, ptr %94, align 8, !tbaa !47
  %96 = load ptr, ptr %5, align 8, !tbaa !6
  %97 = getelementptr inbounds nuw %struct.rsa_st, ptr %96, i32 0, i32 17
  %98 = load i32, ptr %97, align 8, !tbaa !45
  %99 = zext i32 %98 to i64
  %100 = mul i64 8, %99
  call void @llvm.memcpy.p0.p0.i64(ptr align 8 %92, ptr align 8 %95, i64 %100, i1 false)
  %101 = load ptr, ptr %8, align 8, !tbaa !33
  %102 = load ptr, ptr %9, align 8, !tbaa !50
  %103 = load ptr, ptr %5, align 8, !tbaa !6
  %104 = getelementptr inbounds nuw %struct.rsa_st, ptr %103, i32 0, i32 17
  %105 = load i32, ptr %104, align 8, !tbaa !45
  %106 = zext i32 %105 to i64
  %107 = getelementptr inbounds nuw ptr, ptr %102, i64 %106
  store ptr %101, ptr %107, align 8, !tbaa !33
  %108 = load ptr, ptr %5, align 8, !tbaa !6
  %109 = getelementptr inbounds nuw %struct.rsa_st, ptr %108, i32 0, i32 17
  %110 = load i32, ptr %109, align 8, !tbaa !45
  %111 = add i32 %110, 1
  %112 = zext i32 %111 to i64
  %113 = call noalias ptr @malloc(i64 noundef %112) #8
  store ptr %113, ptr %10, align 8, !tbaa !24
  %114 = load ptr, ptr %10, align 8, !tbaa !24
  %115 = icmp eq ptr %114, null
  br i1 %115, label %116, label %117

116:                                              ; preds = %91
  br label %155

117:                                              ; preds = %91
  %118 = load ptr, ptr %10, align 8, !tbaa !24
  %119 = load ptr, ptr %5, align 8, !tbaa !6
  %120 = getelementptr inbounds nuw %struct.rsa_st, ptr %119, i32 0, i32 19
  %121 = load ptr, ptr %120, align 8, !tbaa !46
  %122 = load ptr, ptr %5, align 8, !tbaa !6
  %123 = getelementptr inbounds nuw %struct.rsa_st, ptr %122, i32 0, i32 17
  %124 = load i32, ptr %123, align 8, !tbaa !45
  %125 = zext i32 %124 to i64
  call void @llvm.memcpy.p0.p0.i64(ptr align 1 %118, ptr align 1 %121, i64 %125, i1 false)
  %126 = load ptr, ptr %10, align 8, !tbaa !24
  %127 = load ptr, ptr %5, align 8, !tbaa !6
  %128 = getelementptr inbounds nuw %struct.rsa_st, ptr %127, i32 0, i32 17
  %129 = load i32, ptr %128, align 8, !tbaa !45
  %130 = zext i32 %129 to i64
  %131 = getelementptr inbounds nuw i8, ptr %126, i64 %130
  store i8 1, ptr %131, align 1, !tbaa !44
  %132 = load ptr, ptr %5, align 8, !tbaa !6
  %133 = getelementptr inbounds nuw %struct.rsa_st, ptr %132, i32 0, i32 17
  %134 = load i32, ptr %133, align 8, !tbaa !45
  %135 = load ptr, ptr %6, align 8, !tbaa !42
  store i32 %134, ptr %135, align 4, !tbaa !27
  %136 = load ptr, ptr %5, align 8, !tbaa !6
  %137 = getelementptr inbounds nuw %struct.rsa_st, ptr %136, i32 0, i32 18
  %138 = load ptr, ptr %137, align 8, !tbaa !47
  call void @free(ptr noundef %138) #7
  %139 = load ptr, ptr %9, align 8, !tbaa !50
  %140 = load ptr, ptr %5, align 8, !tbaa !6
  %141 = getelementptr inbounds nuw %struct.rsa_st, ptr %140, i32 0, i32 18
  store ptr %139, ptr %141, align 8, !tbaa !47
  %142 = load ptr, ptr %5, align 8, !tbaa !6
  %143 = getelementptr inbounds nuw %struct.rsa_st, ptr %142, i32 0, i32 19
  %144 = load ptr, ptr %143, align 8, !tbaa !46
  call void @free(ptr noundef %144) #7
  %145 = load ptr, ptr %10, align 8, !tbaa !24
  %146 = load ptr, ptr %5, align 8, !tbaa !6
  %147 = getelementptr inbounds nuw %struct.rsa_st, ptr %146, i32 0, i32 19
  store ptr %145, ptr %147, align 8, !tbaa !46
  %148 = load ptr, ptr %5, align 8, !tbaa !6
  %149 = getelementptr inbounds nuw %struct.rsa_st, ptr %148, i32 0, i32 17
  %150 = load i32, ptr %149, align 8, !tbaa !45
  %151 = add i32 %150, 1
  store i32 %151, ptr %149, align 8, !tbaa !45
  %152 = load ptr, ptr %5, align 8, !tbaa !6
  %153 = getelementptr inbounds nuw %struct.rsa_st, ptr %152, i32 0, i32 13
  call void @CRYPTO_MUTEX_unlock(ptr noundef %153)
  %154 = load ptr, ptr %8, align 8, !tbaa !33
  store ptr %154, ptr %4, align 8
  store i32 1, ptr %13, align 4
  br label %161

155:                                              ; preds = %116
  %156 = load ptr, ptr %9, align 8, !tbaa !50
  call void @free(ptr noundef %156) #7
  br label %157

157:                                              ; preds = %155, %90
  %158 = load ptr, ptr %5, align 8, !tbaa !6
  %159 = getelementptr inbounds nuw %struct.rsa_st, ptr %158, i32 0, i32 13
  call void @CRYPTO_MUTEX_unlock(ptr noundef %159)
  %160 = load ptr, ptr %8, align 8, !tbaa !33
  call void @BN_BLINDING_free(ptr noundef %160)
  store ptr null, ptr %4, align 8
  store i32 1, ptr %13, align 4
  br label %161

161:                                              ; preds = %157, %117, %75, %71, %55
  call void @llvm.lifetime.end.p0(i64 4, ptr %12) #7
  call void @llvm.lifetime.end.p0(i64 1, ptr %11) #7
  call void @llvm.lifetime.end.p0(i64 8, ptr %10) #7
  call void @llvm.lifetime.end.p0(i64 8, ptr %9) #7
  call void @llvm.lifetime.end.p0(i64 8, ptr %8) #7
  %162 = load ptr, ptr %4, align 8
  ret ptr %162
}