; Function Attrs: nounwind uwtable
define internal fastcc ptr @rsa_blinding_get(ptr noundef %0, ptr noundef nonnull writeonly captures(none) %1) unnamed_addr #0 {
  %3 = getelementptr inbounds nuw i8, ptr %0, i64 96
  tail call void @CRYPTO_MUTEX_lock_write(ptr noundef nonnull %3) #8
  %4 = getelementptr inbounds nuw i8, ptr %0, i64 176
  %5 = load i32, ptr %4, align 8, !tbaa !34
  %.not12 = icmp eq i32 %5, 0
  br i1 %.not12, label %.thread, label %.lr.ph

.lr.ph:                                           ; preds = %2
  %6 = getelementptr inbounds nuw i8, ptr %0, i64 192
  %7 = load ptr, ptr %6, align 8, !tbaa !32
  %wide.trip.count = zext i32 %5 to i64
  br label %8

8:                                                ; preds = %.lr.ph, %12
  %indvars.iv = phi i64 [ 0, %.lr.ph ], [ %indvars.iv.next, %12 ]
  %9 = getelementptr inbounds nuw i8, ptr %7, i64 %indvars.iv
  %10 = load i8, ptr %9, align 1, !tbaa !33
  %11 = icmp eq i8 %10, 0
  br i1 %11, label %13, label %12

12:                                               ; preds = %8
  %indvars.iv.next = add nuw nsw i64 %indvars.iv, 1
  %exitcond.not = icmp eq i64 %indvars.iv.next, %wide.trip.count
  br i1 %exitcond.not, label %.thread, label %8, !llvm.loop !35

13:                                               ; preds = %8
  %14 = getelementptr inbounds nuw i8, ptr %7, i64 %indvars.iv
  %15 = trunc nuw i64 %indvars.iv to i32
  store i8 1, ptr %14, align 1, !tbaa !33
  %16 = getelementptr inbounds nuw i8, ptr %0, i64 184
  %17 = load ptr, ptr %16, align 8, !tbaa !37
  %18 = getelementptr inbounds nuw ptr, ptr %17, i64 %indvars.iv
  %19 = load ptr, ptr %18, align 8, !tbaa !38
  store i32 %15, ptr %1, align 4, !tbaa !24
  %.not = icmp eq ptr %19, null
  br i1 %.not, label %thread-pre-split, label %20

20:                                               ; preds = %13
  tail call void @CRYPTO_MUTEX_unlock(ptr noundef nonnull %3) #8
  br label %51

thread-pre-split:                                 ; preds = %13
  %.pr = load i32, ptr %4, align 8, !tbaa !34
  br label %.thread

.thread:                                          ; preds = %12, %2, %thread-pre-split
  %21 = phi i32 [ %.pr, %thread-pre-split ], [ 0, %2 ], [ %5, %12 ]
  tail call void @CRYPTO_MUTEX_unlock(ptr noundef nonnull %3) #8
  %22 = tail call ptr @BN_BLINDING_new() #8
  %23 = icmp eq ptr %22, null
  br i1 %23, label %51, label %24

24:                                               ; preds = %.thread
  %25 = icmp ugt i32 %21, 1023
  br i1 %25, label %26, label %27

26:                                               ; preds = %24
  store i32 1024, ptr %1, align 4, !tbaa !24
  br label %51

27:                                               ; preds = %24
  tail call void @CRYPTO_MUTEX_lock_write(ptr noundef nonnull %3) #8
  %28 = load i32, ptr %4, align 8, !tbaa !34
  %29 = add i32 %28, 1
  %30 = zext i32 %29 to i64
  %31 = shl nuw nsw i64 %30, 3
  %32 = tail call noalias ptr @malloc(i64 noundef %31) #9
  %33 = icmp eq ptr %32, null
  br i1 %33, label %50, label %34

34:                                               ; preds = %27
  %35 = getelementptr inbounds nuw i8, ptr %0, i64 184
  %36 = load ptr, ptr %35, align 8, !tbaa !37
  %37 = zext i32 %28 to i64
  %38 = shl nuw nsw i64 %37, 3
  tail call void @llvm.memcpy.p0.p0.i64(ptr nonnull align 8 %32, ptr align 8 %36, i64 %38, i1 false)
  %39 = getelementptr inbounds nuw ptr, ptr %32, i64 %37
  store ptr %22, ptr %39, align 8, !tbaa !38
  %40 = tail call noalias ptr @malloc(i64 noundef %30) #9
  %41 = icmp eq ptr %40, null
  br i1 %41, label %49, label %42

42:                                               ; preds = %34
  %43 = getelementptr inbounds nuw i8, ptr %0, i64 192
  %44 = load ptr, ptr %43, align 8, !tbaa !32
  tail call void @llvm.memcpy.p0.p0.i64(ptr nonnull align 1 %40, ptr align 1 %44, i64 %37, i1 false)
  %45 = getelementptr inbounds nuw i8, ptr %40, i64 %37
  store i8 1, ptr %45, align 1, !tbaa !33
  store i32 %28, ptr %1, align 4, !tbaa !24
  tail call void @free(ptr noundef %36) #8
  store ptr %32, ptr %35, align 8, !tbaa !37
  %46 = load ptr, ptr %43, align 8, !tbaa !32
  tail call void @free(ptr noundef %46) #8
  store ptr %40, ptr %43, align 8, !tbaa !32
  %47 = load i32, ptr %4, align 8, !tbaa !34
  %48 = add i32 %47, 1
  store i32 %48, ptr %4, align 8, !tbaa !34
  tail call void @CRYPTO_MUTEX_unlock(ptr noundef nonnull %3) #8
  br label %51

49:                                               ; preds = %34
  tail call void @free(ptr noundef nonnull %32) #8
  br label %50

50:                                               ; preds = %27, %49
  tail call void @CRYPTO_MUTEX_unlock(ptr noundef nonnull %3) #8
  tail call void @BN_BLINDING_free(ptr noundef nonnull %22) #8
  br label %51

51:                                               ; preds = %.thread, %50, %42, %26, %20
  %.051 = phi ptr [ %19, %20 ], [ %22, %26 ], [ null, %50 ], [ %22, %42 ], [ null, %.thread ]
  ret ptr %.051
}